target datalayout = "e-m:e-p270:32:32-p271:32:32-p272:64:64-i64:64-i128:128-f80:128-n8:16:32:64-S128"
target triple = "x86_64-pc-linux-gnu"

; Function Attrs: nounwind uwtable
define internal void @PredictLine_C(ptr noundef %0, ptr noundef %1, ptr noundef %2, i32 noundef %3, i32 noundef %4) #0 {
  %6 = alloca ptr, align 8
  %7 = alloca ptr, align 8
  %8 = alloca ptr, align 8
  %9 = alloca i32, align 4
  %10 = alloca i32, align 4
  %11 = alloca i32, align 4
  store ptr %0, ptr %6, align 8
  store ptr %1, ptr %7, align 8
  store ptr %2, ptr %8, align 8
  store i32 %3, ptr %9, align 4
  store i32 %4, ptr %10, align 4
  %12 = load i32, ptr %10, align 4
  %13 = icmp ne i32 %12, 0
  br i1 %13, label %14, label %42

14:                                               ; preds = %5
  store i32 0, ptr %11, align 4
  br label %15

15:                                               ; preds = %38, %14
  %16 = load i32, ptr %11, align 4
  %17 = load i32, ptr %9, align 4
  %18 = icmp slt i32 %16, %17
  br i1 %18, label %19, label %41

19:                                               ; preds = %15
  %20 = load ptr, ptr %6, align 8
  %21 = load i32, ptr %11, align 4
  %22 = sext i32 %21 to i64
  %23 = getelementptr inbounds i8, ptr %20, i64 %22
  %24 = load i8, ptr %23, align 1
  %25 = zext i8 %24 to i32
  %26 = load ptr, ptr %7, align 8
  %27 = load i32, ptr %11, align 4
  %28 = sext i32 %27 to i64
  %29 = getelementptr inbounds i8, ptr %26, i64 %28
  %30 = load i8, ptr %29, align 1
  %31 = zext i8 %30 to i32
  %32 = add nsw i32 %25, %31
  %33 = trunc i32 %32 to i8
  %34 = load ptr, ptr %8, align 8
  %35 = load i32, ptr %11, align 4
  %36 = sext i32 %35 to i64
  %37 = getelementptr inbounds i8, ptr %34, i64 %36
  store i8 %33, ptr %37, align 1
  br label %38

38:                                               ; preds = %19
  %39 = load i32, ptr %11, align 4
  %40 = add nsw i32 %39, 1
  store i32 %40, ptr %11, align 4
  br label %15, !llvm.loop !9

41:                                               ; preds = %15
  br label %70

42:                                               ; preds = %5
  store i32 0, ptr %11, align 4
  br label %43

43:                                               ; preds = %66, %42
  %44 = load i32, ptr %11, align 4
  %45 = load i32, ptr %9, align 4
  %46 = icmp slt i32 %44, %45
  br i1 %46, label %47, label %69

47:                                               ; preds = %43
  %48 = load ptr, ptr %6, align 8
  %49 = load i32, ptr %11, align 4
  %50 = sext i32 %49 to i64
  %51 = getelementptr inbounds i8, ptr %48, i64 %50
  %52 = load i8, ptr %51, align 1
  %53 = zext i8 %52 to i32
  %54 = load ptr, ptr %7, align 8
  %55 = load i32, ptr %11, align 4
  %56 = sext i32 %55 to i64
  %57 = getelementptr inbounds i8, ptr %54, i64 %56
  %58 = load i8, ptr %57, align 1
  %59 = zext i8 %58 to i32
  %60 = sub nsw i32 %53, %59
  %61 = trunc i32 %60 to i8
  %62 = load ptr, ptr %8, align 8
  %63 = load i32, ptr %11, align 4
  %64 = sext i32 %63 to i64
  %65 = getelementptr inbounds i8, ptr %62, i64 %64
  store i8 %61, ptr %65, align 1
  br label %66

66:                                               ; preds = %47
  %67 = load i32, ptr %11, align 4
  %68 = add nsw i32 %67, 1
  store i32 %68, ptr %11, align 4
  br label %43, !llvm.loop !10

69:                                               ; preds = %43
  br label %70

70:                                               ; preds = %69, %41
  ret void
}

; Function Attrs: nounwind uwtable
define internal void @DoVerticalFilter_C(ptr noundef %0, i32 noundef %1, i32 noundef %2, i32 noundef %3, i32 noundef %4, i32 noundef %5, i32 noundef %6, ptr noundef %7) #0 {
  %9 = alloca ptr, align 8
  %10 = alloca i32, align 4
  %11 = alloca i32, align 4
  %12 = alloca i32, align 4
  %13 = alloca i32, align 4
  %14 = alloca i32, align 4
  %15 = alloca i32, align 4
  %16 = alloca ptr, align 8
  %17 = alloca ptr, align 8
  %18 = alloca i64, align 8
  %19 = alloca i32, align 4
  store ptr %0, ptr %9, align 8
  store i32 %1, ptr %10, align 4
  store i32 %2, ptr %11, align 4
  store i32 %3, ptr %12, align 4
  store i32 %4, ptr %13, align 4
  store i32 %5, ptr %14, align 4
  store i32 %6, ptr %15, align 4
  store ptr %7, ptr %16, align 8
  %20 = load i32, ptr %13, align 4
  %21 = load i32, ptr %12, align 4
  %22 = mul nsw i32 %20, %21
  %23 = sext i32 %22 to i64
  store i64 %23, ptr %18, align 8
  %24 = load i32, ptr %13, align 4
  %25 = load i32, ptr %14, align 4
  %26 = add nsw i32 %24, %25
  store i32 %26, ptr %19, align 4
  br label %27

27:                                               ; preds = %8
  br label %28

28:                                               ; preds = %27
  %29 = load i64, ptr %18, align 8
  %30 = load ptr, ptr %9, align 8
  %31 = getelementptr inbounds i8, ptr %30, i64 %29
  store ptr %31, ptr %9, align 8
  %32 = load i64, ptr %18, align 8
  %33 = load ptr, ptr %16, align 8
  %34 = getelementptr inbounds i8, ptr %33, i64 %32
  store ptr %34, ptr %16, align 8
  %35 = load i32, ptr %15, align 4
  %36 = icmp ne i32 %35, 0
  br i1 %36, label %37, label %39

37:                                               ; preds = %28
  %38 = load ptr, ptr %16, align 8
  br label %41

39:                                               ; preds = %28
  %40 = load ptr, ptr %9, align 8
  br label %41

41:                                               ; preds = %39, %37
  %42 = phi ptr [ %38, %37 ], [ %40, %39 ]
  store ptr %42, ptr %17, align 8
  %43 = load i32, ptr %13, align 4
  %44 = icmp eq i32 %43, 0
  br i1 %44, label %45, label %67

45:                                               ; preds = %41
  %46 = load ptr, ptr %9, align 8
  %47 = getelementptr inbounds i8, ptr %46, i64 0
  %48 = load i8, ptr %47, align 1
  %49 = load ptr, ptr %16, align 8
  %50 = getelementptr inbounds i8, ptr %49, i64 0
  store i8 %48, ptr %50, align 1
  %51 = load ptr, ptr %9, align 8
  %52 = getelementptr inbounds i8, ptr %51, i64 1
  %53 = load ptr, ptr %17, align 8
  %54 = load ptr, ptr %16, align 8
  %55 = getelementptr inbounds i8, ptr %54, i64 1
  %56 = load i32, ptr %10, align 4
  %57 = sub nsw i32 %56, 1
  %58 = load i32, ptr %15, align 4
  call void @PredictLine_C(ptr noundef %52, ptr noundef %53, ptr noundef %55, i32 noundef %57, i32 noundef %58)
  store i32 1, ptr %13, align 4
  %59 = load i32, ptr %12, align 4
  %60 = load ptr, ptr %9, align 8
  %61 = sext i32 %59 to i64
  %62 = getelementptr inbounds i8, ptr %60, i64 %61
  store ptr %62, ptr %9, align 8
  %63 = load i32, ptr %12, align 4
  %64 = load ptr, ptr %16, align 8
  %65 = sext i32 %63 to i64
  %66 = getelementptr inbounds i8, ptr %64, i64 %65
  store ptr %66, ptr %16, align 8
  br label %73

67:                                               ; preds = %41
  %68 = load i32, ptr %12, align 4
  %69 = load ptr, ptr %17, align 8
  %70 = sext i32 %68 to i64
  %71 = sub i64 0, %70
  %72 = getelementptr inbounds i8, ptr %69, i64 %71
  store ptr %72, ptr %17, align 8
  br label %73

73:                                               ; preds = %67, %45
  br label %74

74:                                               ; preds = %78, %73
  %75 = load i32, ptr %13, align 4
  %76 = load i32, ptr %19, align 4
  %77 = icmp slt i32 %75, %76
  br i1 %77, label %78, label %98

78:                                               ; preds = %74
  %79 = load ptr, ptr %9, align 8
  %80 = load ptr, ptr %17, align 8
  %81 = load ptr, ptr %16, align 8
  %82 = load i32, ptr %10, align 4
  %83 = load i32, ptr %15, align 4
  call void @PredictLine_C(ptr noundef %79, ptr noundef %80, ptr noundef %81, i32 noundef %82, i32 noundef %83)
  %84 = load i32, ptr %13, align 4
  %85 = add nsw i32 %84, 1
  store i32 %85, ptr %13, align 4
  %86 = load i32, ptr %12, align 4
  %87 = load ptr, ptr %17, align 8
  %88 = sext i32 %86 to i64
  %89 = getelementptr inbounds i8, ptr %87, i64 %88
  store ptr %89, ptr %17, align 8
  %90 = load i32, ptr %12, align 4
  %91 = load ptr, ptr %9, align 8
  %92 = sext i32 %90 to i64
  %93 = getelementptr inbounds i8, ptr %91, i64 %92
  store ptr %93, ptr %9, align 8
  %94 = load i32, ptr %12, align 4
  %95 = load ptr, ptr %16, align 8
  %96 = sext i32 %94 to i64
  %97 = getelementptr inbounds i8, ptr %95, i64 %96
  store ptr %97, ptr %16, align 8
  br label %74, !llvm.loop !11

98:                                               ; preds = %74
  ret void
}

; Function Attrs: nounwind uwtable
define internal void @VerticalFilter_C(ptr noundef %0, i32 noundef %1, i32 noundef %2, i32 noundef %3, ptr noundef %4) #0 {
  %6 = alloca ptr, align 8
  %7 = alloca i32, align 4
  %8 = alloca i32, align 4
  %9 = alloca i32, align 4
  %10 = alloca ptr, align 8
  store ptr %0, ptr %6, align 8
  store i32 %1, ptr %7, align 4
  store i32 %2, ptr %8, align 4
  store i32 %3, ptr %9, align 4
  store ptr %4, ptr %10, align 8
  %11 = load ptr, ptr %6, align 8
  %12 = load i32, ptr %7, align 4
  %13 = load i32, ptr %8, align 4
  %14 = load i32, ptr %9, align 4
  %15 = load i32, ptr %8, align 4
  %16 = load ptr, ptr %10, align 8
  call void @DoVerticalFilter_C(ptr noundef %11, i32 noundef %12, i32 noundef %13, i32 noundef %14, i32 noundef 0, i32 noundef %15, i32 noundef 0, ptr noundef %16)
  ret void
}