; Function Attrs: nofree norecurse nosync nounwind memory(readwrite, inaccessiblemem: none) uwtable
define internal void @VerticalFilter_C(ptr nocapture noundef readonly %0, i32 noundef %1, i32 noundef %2, i32 noundef %3, ptr nocapture noundef writeonly %4) #4 {
  %6 = load i8, ptr %0, align 1
  store i8 %6, ptr %4, align 1
  %7 = getelementptr inbounds i8, ptr %0, i64 1
  %8 = getelementptr inbounds i8, ptr %4, i64 1
  %9 = icmp sgt i32 %1, 1
  br i1 %9, label %.lr.ph.preheader.i.i, label %PredictLine_C.exit.i

.lr.ph.preheader.i.i:                             ; preds = %5
  %10 = add nsw i32 %1, -1
  %wide.trip.count.i.i = zext nneg i32 %10 to i64
  br label %.lr.ph.i.i

.lr.ph.i.i:                                       ; preds = %.lr.ph.i.i, %.lr.ph.preheader.i.i
  %indvars.iv.i.i = phi i64 [ 0, %.lr.ph.preheader.i.i ], [ %indvars.iv.next.i.i, %.lr.ph.i.i ]
  %11 = getelementptr inbounds i8, ptr %7, i64 %indvars.iv.i.i
  %12 = load i8, ptr %11, align 1
  %13 = getelementptr inbounds i8, ptr %0, i64 %indvars.iv.i.i
  %14 = load i8, ptr %13, align 1
  %15 = sub i8 %12, %14
  %16 = getelementptr inbounds i8, ptr %8, i64 %indvars.iv.i.i
  store i8 %15, ptr %16, align 1
  %indvars.iv.next.i.i = add nuw nsw i64 %indvars.iv.i.i, 1
  %exitcond.not.i.i = icmp eq i64 %indvars.iv.next.i.i, %wide.trip.count.i.i
  br i1 %exitcond.not.i.i, label %PredictLine_C.exit.i, label %.lr.ph.i.i, !llvm.loop !8

PredictLine_C.exit.i:                             ; preds = %.lr.ph.i.i, %5
  %17 = sext i32 %3 to i64
  %18 = icmp sgt i32 %2, 1
  br i1 %18, label %.lr.ph.i, label %DoVerticalFilter_C.exit

.lr.ph.i:                                         ; preds = %PredictLine_C.exit.i
  %19 = icmp sgt i32 %1, 0
  %wide.trip.count.i46.i = zext nneg i32 %1 to i64
  br i1 %19, label %.lr.ph.preheader.i45.us.i, label %DoVerticalFilter_C.exit

.lr.ph.preheader.i45.us.i:                        ; preds = %.lr.ph.i, %PredictLine_C.exit51.loopexit.us.i
  %.14358.us.pn.i = phi ptr [ %.14358.us.i, %PredictLine_C.exit51.loopexit.us.i ], [ %4, %.lr.ph.i ]
  %.157.us.pn.i = phi ptr [ %.157.us.i, %PredictLine_C.exit51.loopexit.us.i ], [ %0, %.lr.ph.i ]
  %.13956.us.i = phi i32 [ %26, %PredictLine_C.exit51.loopexit.us.i ], [ 1, %.lr.ph.i ]
  %.157.us.i = getelementptr i8, ptr %.157.us.pn.i, i64 %17
  %.14358.us.i = getelementptr inbounds i8, ptr %.14358.us.pn.i, i64 %17
  br label %.lr.ph.i47.us.i

.lr.ph.i47.us.i:                                  ; preds = %.lr.ph.i47.us.i, %.lr.ph.preheader.i45.us.i
  %indvars.iv.i48.us.i = phi i64 [ 0, %.lr.ph.preheader.i45.us.i ], [ %indvars.iv.next.i49.us.i, %.lr.ph.i47.us.i ]
  %20 = getelementptr inbounds i8, ptr %.157.us.i, i64 %indvars.iv.i48.us.i
  %21 = load i8, ptr %20, align 1
  %22 = getelementptr inbounds i8, ptr %.157.us.pn.i, i64 %indvars.iv.i48.us.i
  %23 = load i8, ptr %22, align 1
  %24 = sub i8 %21, %23
  %25 = getelementptr inbounds i8, ptr %.14358.us.i, i64 %indvars.iv.i48.us.i
  store i8 %24, ptr %25, align 1
  %indvars.iv.next.i49.us.i = add nuw nsw i64 %indvars.iv.i48.us.i, 1
  %exitcond.not.i50.us.i = icmp eq i64 %indvars.iv.next.i49.us.i, %wide.trip.count.i46.i
  br i1 %exitcond.not.i50.us.i, label %PredictLine_C.exit51.loopexit.us.i, label %.lr.ph.i47.us.i, !llvm.loop !8

PredictLine_C.exit51.loopexit.us.i:               ; preds = %.lr.ph.i47.us.i
  %26 = add nuw nsw i32 %.13956.us.i, 1
  %exitcond.not.i = icmp eq i32 %26, %2
  br i1 %exitcond.not.i, label %DoVerticalFilter_C.exit, label %.lr.ph.preheader.i45.us.i, !llvm.loop !10

DoVerticalFilter_C.exit:                          ; preds = %PredictLine_C.exit51.loopexit.us.i, %PredictLine_C.exit.i, %.lr.ph.i
  ret void
}